; ModuleID = '10/1578.c'
source_filename = "10/1578.c"
target datalayout = "e-m:e-p270:32:32-p271:32:32-p272:64:64-i64:64-f80:128-n8:16:32:64-S128"
target triple = "x86_64-pc-linux-gnu"

@.str = private unnamed_addr constant [3 x i8] c"%d\00", align 1
@.str.1 = private unnamed_addr constant [4 x i8] c"%d\0A\00", align 1

; Function Attrs: noinline nounwind uwtable
define dso_local i32 @main() #0 {
  %1 = alloca i32, align 4
  %2 = alloca i32, align 4
  %3 = alloca i32*, align 8
  %4 = alloca i32*, align 8
  %5 = alloca i32, align 4
  %6 = alloca i32, align 4
  %7 = alloca i32, align 4
  %8 = alloca i32, align 4
  %9 = alloca i32, align 4
  store i32 0, i32* %1, align 4
  %10 = call i32 (i8*, ...) @__isoc99_scanf(i8* getelementptr inbounds ([3 x i8], [3 x i8]* @.str, i64 0, i64 0), i32* %2)
  %11 = load i32, i32* %2, align 4
  %12 = sext i32 %11 to i64
  %13 = mul i64 %12, 4
  %14 = call noalias i8* @malloc(i64 %13) #3
  %15 = bitcast i8* %14 to i32*
  store i32* %15, i32** %3, align 8
  %16 = load i32, i32* %2, align 4
  %17 = sext i32 %16 to i64
  %18 = mul i64 %17, 4
  %19 = call noalias i8* @malloc(i64 %18) #3
  %20 = bitcast i8* %19 to i32*
  store i32* %20, i32** %4, align 8
  %21 = load i32*, i32** %4, align 8
  %22 = load i32, i32* %2, align 4
  %23 = sub nsw i32 %22, 1
  %24 = sext i32 %23 to i64
  %25 = getelementptr inbounds i32, i32* %21, i64 %24
  store i32 1, i32* %25, align 4
  %26 = load i32*, i32** %4, align 8
  %27 = load i32, i32* %2, align 4
  %28 = sub nsw i32 %27, 1
  %29 = sext i32 %28 to i64
  %30 = getelementptr inbounds i32, i32* %26, i64 %29
  %31 = load i32, i32* %30, align 4
  store i32 %31, i32* %5, align 4
  store i32 0, i32* %6, align 4
  br label %32

32:                                               ; preds = %42, %0
  %33 = load i32, i32* %6, align 4
  %34 = load i32, i32* %2, align 4
  %35 = icmp slt i32 %33, %34
  br i1 %35, label %36, label %45

36:                                               ; preds = %32
  %37 = load i32*, i32** %3, align 8
  %38 = load i32, i32* %6, align 4
  %39 = sext i32 %38 to i64
  %40 = getelementptr inbounds i32, i32* %37, i64 %39
  %41 = call i32 (i8*, ...) @__isoc99_scanf(i8* getelementptr inbounds ([3 x i8], [3 x i8]* @.str, i64 0, i64 0), i32* %40)
  br label %42

42:                                               ; preds = %36
  %43 = load i32, i32* %6, align 4
  %44 = add nsw i32 %43, 1
  store i32 %44, i32* %6, align 4
  br label %32

45:                                               ; preds = %32
  %46 = load i32, i32* %2, align 4
  %47 = sub nsw i32 %46, 2
  store i32 %47, i32* %7, align 4
  br label %48

48:                                               ; preds = %109, %45
  %49 = load i32, i32* %7, align 4
  %50 = icmp sge i32 %49, 0
  br i1 %50, label %51, label %112

51:                                               ; preds = %48
  store i32 0, i32* %8, align 4
  %52 = load i32, i32* %2, align 4
  %53 = sub nsw i32 %52, 1
  store i32 %53, i32* %9, align 4
  br label %54

54:                                               ; preds = %85, %51
  %55 = load i32, i32* %9, align 4
  %56 = load i32, i32* %7, align 4
  %57 = icmp sgt i32 %55, %56
  br i1 %57, label %58, label %88

58:                                               ; preds = %54
  %59 = load i32*, i32** %3, align 8
  %60 = load i32, i32* %7, align 4
  %61 = sext i32 %60 to i64
  %62 = getelementptr inbounds i32, i32* %59, i64 %61
  %63 = load i32, i32* %62, align 4
  %64 = load i32*, i32** %3, align 8
  %65 = load i32, i32* %9, align 4
  %66 = sext i32 %65 to i64
  %67 = getelementptr inbounds i32, i32* %64, i64 %66
  %68 = load i32, i32* %67, align 4
  %69 = icmp sge i32 %63, %68
  br i1 %69, label %70, label %84

70:                                               ; preds = %58
  %71 = load i32*, i32** %4, align 8
  %72 = load i32, i32* %9, align 4
  %73 = sext i32 %72 to i64
  %74 = getelementptr inbounds i32, i32* %71, i64 %73
  %75 = load i32, i32* %74, align 4
  %76 = load i32, i32* %8, align 4
  %77 = icmp sge i32 %75, %76
  br i1 %77, label %78, label %84

78:                                               ; preds = %70
  %79 = load i32*, i32** %4, align 8
  %80 = load i32, i32* %9, align 4
  %81 = sext i32 %80 to i64
  %82 = getelementptr inbounds i32, i32* %79, i64 %81
  %83 = load i32, i32* %82, align 4
  store i32 %83, i32* %8, align 4
  br label %84

84:                                               ; preds = %78, %70, %58
  br label %85

85:                                               ; preds = %84
  %86 = load i32, i32* %9, align 4
  %87 = add nsw i32 %86, -1
  store i32 %87, i32* %9, align 4
  br label %54

88:                                               ; preds = %54
  %89 = load i32, i32* %8, align 4
  %90 = add nsw i32 %89, 1
  %91 = load i32*, i32** %4, align 8
  %92 = load i32, i32* %7, align 4
  %93 = sext i32 %92 to i64
  %94 = getelementptr inbounds i32, i32* %91, i64 %93
  store i32 %90, i32* %94, align 4
  %95 = load i32*, i32** %4, align 8
  %96 = load i32, i32* %7, align 4
  %97 = sext i32 %96 to i64
  %98 = getelementptr inbounds i32, i32* %95, i64 %97
  %99 = load i32, i32* %98, align 4
  %100 = load i32, i32* %5, align 4
  %101 = icmp sgt i32 %99, %100
  br i1 %101, label %102, label %108

102:                                              ; preds = %88
  %103 = load i32*, i32** %4, align 8
  %104 = load i32, i32* %7, align 4
  %105 = sext i32 %104 to i64
  %106 = getelementptr inbounds i32, i32* %103, i64 %105
  %107 = load i32, i32* %106, align 4
  store i32 %107, i32* %5, align 4
  br label %108

108:                                              ; preds = %102, %88
  br label %109

109:                                              ; preds = %108
  %110 = load i32, i32* %7, align 4
  %111 = add nsw i32 %110, -1
  store i32 %111, i32* %7, align 4
  br label %48

112:                                              ; preds = %48
  %113 = load i32, i32* %5, align 4
  %114 = call i32 (i8*, ...) @printf(i8* getelementptr inbounds ([4 x i8], [4 x i8]* @.str.1, i64 0, i64 0), i32 %113)
  %115 = load i32, i32* %1, align 4
  ret i32 %115
}

declare dso_local i32 @__isoc99_scanf(i8*, ...) #1

; Function Attrs: nounwind
declare dso_local noalias i8* @malloc(i64) #2

declare dso_local i32 @printf(i8*, ...) #1


!llvm.module.flags = !{!0}
!llvm.ident = !{!1}

!0 = !{i32 1, !"wchar_size", i32 4}
!1 = !{!"clang version 10.0.0-4ubuntu1 "}
